target datalayout = "e-m:e-p270:32:32-p271:32:32-p272:64:64-i64:64-i128:128-f80:128-n8:16:32:64-S128"
target triple = "x86_64-unknown-linux-gnu"

%"struct.nla::const_iterator_mon" = type { %class.svector.0, ptr, i8, i32 }
%class.svector.0 = type { %class.vector.1 }
%class.vector.1 = type { ptr }

; Function Attrs: mustprogress nounwind uwtable
define linkonce_odr hidden noundef ptr @_ZNSt11__copy_moveILb0ELb1ESt26random_access_iterator_tagE8__copy_mIbEEPT_PKS3_S6_S4_(ptr noundef %__first, ptr noundef %__last, ptr noundef %__result) #4 comdat align 2 {
entry:
  %__first.addr = alloca ptr, align 8
  %__last.addr = alloca ptr, align 8
  %__result.addr = alloca ptr, align 8
  %_Num = alloca i64, align 8
  store ptr %__first, ptr %__first.addr, align 8
  store ptr %__last, ptr %__last.addr, align 8
  store ptr %__result, ptr %__result.addr, align 8
  %0 = load ptr, ptr %__last.addr, align 8
  %1 = load ptr, ptr %__first.addr, align 8
  %sub.ptr.lhs.cast = ptrtoint ptr %0 to i64
  %sub.ptr.rhs.cast = ptrtoint ptr %1 to i64
  %sub.ptr.sub = sub i64 %sub.ptr.lhs.cast, %sub.ptr.rhs.cast
  store i64 %sub.ptr.sub, ptr %_Num, align 8
  %2 = load i64, ptr %_Num, align 8
  %tobool = icmp ne i64 %2, 0
  br i1 %tobool, label %if.then, label %if.end

if.then:                                          ; preds = %entry
  %3 = load ptr, ptr %__result.addr, align 8
  %4 = load ptr, ptr %__first.addr, align 8
  %5 = load i64, ptr %_Num, align 8
  %mul = mul i64 1, %5
  call void @llvm.memmove.p0.p0.i64(ptr align 1 %3, ptr align 1 %4, i64 %mul, i1 false)
  br label %if.end

if.end:                                           ; preds = %if.then, %entry
  %6 = load ptr, ptr %__result.addr, align 8
  %7 = load i64, ptr %_Num, align 8
  %add.ptr = getelementptr inbounds i8, ptr %6, i64 %7
  ret ptr %add.ptr
}

; Function Attrs: mustprogress uwtable
define linkonce_odr noundef ptr @_ZSt14__copy_move_a2ILb0EPKbPbET1_T0_S4_S3_(ptr noundef %__first, ptr noundef %__last, ptr noundef %__result) #5 comdat {
entry:
  %__first.addr = alloca ptr, align 8
  %__last.addr = alloca ptr, align 8
  %__result.addr = alloca ptr, align 8
  store ptr %__first, ptr %__first.addr, align 8
  store ptr %__last, ptr %__last.addr, align 8
  store ptr %__result, ptr %__result.addr, align 8
  %0 = load ptr, ptr %__first.addr, align 8
  %1 = load ptr, ptr %__last.addr, align 8
  %2 = load ptr, ptr %__result.addr, align 8
  %call = call noundef ptr @_ZNSt11__copy_moveILb0ELb1ESt26random_access_iterator_tagE8__copy_mIbEEPT_PKS3_S6_S4_(ptr noundef %0, ptr noundef %1, ptr noundef %2)
  ret ptr %call
}

; Function Attrs: mustprogress nounwind uwtable
define linkonce_odr noundef ptr @_ZSt12__niter_wrapIPbET_RKS1_S1_(ptr noundef nonnull align 8 dereferenceable(8) %0, ptr noundef %__res) #4 comdat {
entry:
  %.addr = alloca ptr, align 8
  %__res.addr = alloca ptr, align 8
  store ptr %0, ptr %.addr, align 8
  store ptr %__res, ptr %__res.addr, align 8
  %1 = load ptr, ptr %__res.addr, align 8
  ret ptr %1
}

; Function Attrs: mustprogress uwtable
define linkonce_odr noundef ptr @_ZSt14__copy_move_a1ILb0EPKbPbET1_T0_S4_S3_(ptr noundef %__first, ptr noundef %__last, ptr noundef %__result) #5 comdat {
entry:
  %__first.addr = alloca ptr, align 8
  %__last.addr = alloca ptr, align 8
  %__result.addr = alloca ptr, align 8
  store ptr %__first, ptr %__first.addr, align 8
  store ptr %__last, ptr %__last.addr, align 8
  store ptr %__result, ptr %__result.addr, align 8
  %0 = load ptr, ptr %__first.addr, align 8
  %1 = load ptr, ptr %__last.addr, align 8
  %2 = load ptr, ptr %__result.addr, align 8
  %call = call noundef ptr @_ZSt14__copy_move_a2ILb0EPKbPbET1_T0_S4_S3_(ptr noundef %0, ptr noundef %1, ptr noundef %2)
  ret ptr %call
}

; Function Attrs: mustprogress nounwind uwtable
define linkonce_odr noundef ptr @_ZSt12__niter_baseIPbET_S1_(ptr noundef %__it) #4 comdat {
entry:
  %__it.addr = alloca ptr, align 8
  store ptr %__it, ptr %__it.addr, align 8
  %0 = load ptr, ptr %__it.addr, align 8
  ret ptr %0
}

; Function Attrs: mustprogress nounwind uwtable
define linkonce_odr noundef ptr @_ZSt12__niter_baseIPKbET_S2_(ptr noundef %__it) #4 comdat {
entry:
  %__it.addr = alloca ptr, align 8
  store ptr %__it, ptr %__it.addr, align 8
  %0 = load ptr, ptr %__it.addr, align 8
  ret ptr %0
}

; Function Attrs: mustprogress uwtable
define linkonce_odr noundef ptr @_ZSt13__copy_move_aILb0EPKbPbET1_T0_S4_S3_(ptr noundef %__first, ptr noundef %__last, ptr noundef %__result) #5 comdat {
entry:
  %__first.addr = alloca ptr, align 8
  %__last.addr = alloca ptr, align 8
  %__result.addr = alloca ptr, align 8
  store ptr %__first, ptr %__first.addr, align 8
  store ptr %__last, ptr %__last.addr, align 8
  store ptr %__result, ptr %__result.addr, align 8
  %0 = load ptr, ptr %__first.addr, align 8
  %call = call noundef ptr @_ZSt12__niter_baseIPKbET_S2_(ptr noundef %0) #3
  %1 = load ptr, ptr %__last.addr, align 8
  %call1 = call noundef ptr @_ZSt12__niter_baseIPKbET_S2_(ptr noundef %1) #3
  %2 = load ptr, ptr %__result.addr, align 8
  %call2 = call noundef ptr @_ZSt12__niter_baseIPbET_S1_(ptr noundef %2) #3
  %call3 = call noundef ptr @_ZSt14__copy_move_a1ILb0EPKbPbET1_T0_S4_S3_(ptr noundef %call, ptr noundef %call1, ptr noundef %call2)
  %call4 = call noundef ptr @_ZSt12__niter_wrapIPbET_RKS1_S1_(ptr noundef nonnull align 8 dereferenceable(8) %__result.addr, ptr noundef %call3)
  ret ptr %call4
}

; Function Attrs: mustprogress nounwind uwtable
define linkonce_odr noundef ptr @_ZSt12__miter_baseIPKbET_S2_(ptr noundef %__it) #4 comdat {
entry:
  %__it.addr = alloca ptr, align 8
  store ptr %__it, ptr %__it.addr, align 8
  %0 = load ptr, ptr %__it.addr, align 8
  ret ptr %0
}

; Function Attrs: mustprogress uwtable
define linkonce_odr noundef ptr @_ZSt4copyIPKbPbET0_T_S4_S3_(ptr noundef %__first, ptr noundef %__last, ptr noundef %__result) #5 comdat {
entry:
  %__first.addr = alloca ptr, align 8
  %__last.addr = alloca ptr, align 8
  %__result.addr = alloca ptr, align 8
  store ptr %__first, ptr %__first.addr, align 8
  store ptr %__last, ptr %__last.addr, align 8
  store ptr %__result, ptr %__result.addr, align 8
  %0 = load ptr, ptr %__first.addr, align 8
  %call = call noundef ptr @_ZSt12__miter_baseIPKbET_S2_(ptr noundef %0)
  %1 = load ptr, ptr %__last.addr, align 8
  %call1 = call noundef ptr @_ZSt12__miter_baseIPKbET_S2_(ptr noundef %1)
  %2 = load ptr, ptr %__result.addr, align 8
  %call2 = call noundef ptr @_ZSt13__copy_move_aILb0EPKbPbET1_T0_S4_S3_(ptr noundef %call, ptr noundef %call1, ptr noundef %2)
  ret ptr %call2
}

; Function Attrs: mustprogress uwtable
define linkonce_odr hidden noundef ptr @_ZNSt20__uninitialized_copyILb1EE13__uninit_copyIPKbPbEET0_T_S6_S5_(ptr noundef %__first, ptr noundef %__last, ptr noundef %__result) #5 comdat align 2 {
entry:
  %__first.addr = alloca ptr, align 8
  %__last.addr = alloca ptr, align 8
  %__result.addr = alloca ptr, align 8
  store ptr %__first, ptr %__first.addr, align 8
  store ptr %__last, ptr %__last.addr, align 8
  store ptr %__result, ptr %__result.addr, align 8
  %0 = load ptr, ptr %__first.addr, align 8
  %1 = load ptr, ptr %__last.addr, align 8
  %2 = load ptr, ptr %__result.addr, align 8
  %call = call noundef ptr @_ZSt4copyIPKbPbET0_T_S4_S3_(ptr noundef %0, ptr noundef %1, ptr noundef %2)
  ret ptr %call
}

; Function Attrs: mustprogress uwtable
define linkonce_odr noundef ptr @_ZSt18uninitialized_copyIPKbPbET0_T_S4_S3_(ptr noundef %__first, ptr noundef %__last, ptr noundef %__result) #5 comdat {
entry:
  %__first.addr = alloca ptr, align 8
  %__last.addr = alloca ptr, align 8
  %__result.addr = alloca ptr, align 8
  %__can_memmove = alloca i8, align 1
  %__assignable = alloca i8, align 1
  store ptr %__first, ptr %__first.addr, align 8
  store ptr %__last, ptr %__last.addr, align 8
  store ptr %__result, ptr %__result.addr, align 8
  store i8 1, ptr %__can_memmove, align 1
  store i8 1, ptr %__assignable, align 1
  %0 = load ptr, ptr %__first.addr, align 8
  %1 = load ptr, ptr %__last.addr, align 8
  %2 = load ptr, ptr %__result.addr, align 8
  %call = call noundef ptr @_ZNSt20__uninitialized_copyILb1EE13__uninit_copyIPKbPbEET0_T_S6_S5_(ptr noundef %0, ptr noundef %1, ptr noundef %2)
  ret ptr %call
}

; Function Attrs: mustprogress uwtable
define linkonce_odr hidden noundef ptr @_ZNK6vectorIbLb0EjE3endEv(ptr noundef nonnull align 8 dereferenceable(8) %this) #5 comdat align 2 {
entry:
  %this.addr = alloca ptr, align 8
  store ptr %this, ptr %this.addr, align 8
  %this1 = load ptr, ptr %this.addr, align 8
  %m_data = getelementptr inbounds %class.vector.1, ptr %this1, i32 0, i32 0
  %0 = load ptr, ptr %m_data, align 8
  %call = call noundef i32 @_ZNK6vectorIbLb0EjE4sizeEv(ptr noundef nonnull align 8 dereferenceable(8) %this1)
  %idx.ext = zext i32 %call to i64
  %add.ptr = getelementptr inbounds i8, ptr %0, i64 %idx.ext
  ret ptr %add.ptr
}

; Function Attrs: mustprogress nounwind uwtable
define linkonce_odr hidden noundef ptr @_ZNK6vectorIbLb0EjE5beginEv(ptr noundef nonnull align 8 dereferenceable(8) %this) #4 comdat align 2 {
entry:
  %this.addr = alloca ptr, align 8
  store ptr %this, ptr %this.addr, align 8
  %this1 = load ptr, ptr %this.addr, align 8
  %m_data = getelementptr inbounds %class.vector.1, ptr %this1, i32 0, i32 0
  %0 = load ptr, ptr %m_data, align 8
  ret ptr %0
}

; Function Attrs: mustprogress nounwind uwtable
define linkonce_odr hidden noundef i32 @_ZNK6vectorIbLb0EjE8capacityEv(ptr noundef nonnull align 8 dereferenceable(8) %this) #4 comdat align 2 {
entry:
  %retval = alloca i32, align 4
  %this.addr = alloca ptr, align 8
  store ptr %this, ptr %this.addr, align 8
  %this1 = load ptr, ptr %this.addr, align 8
  %m_data = getelementptr inbounds %class.vector.1, ptr %this1, i32 0, i32 0
  %0 = load ptr, ptr %m_data, align 8
  %cmp = icmp eq ptr %0, null
  br i1 %cmp, label %if.then, label %if.end

if.then:                                          ; preds = %entry
  store i32 0, ptr %retval, align 4
  br label %return

if.end:                                           ; preds = %entry
  %m_data2 = getelementptr inbounds %class.vector.1, ptr %this1, i32 0, i32 0
  %1 = load ptr, ptr %m_data2, align 8
  %arrayidx = getelementptr inbounds i32, ptr %1, i64 -2
  %2 = load i32, ptr %arrayidx, align 4
  store i32 %2, ptr %retval, align 4
  br label %return

return:                                           ; preds = %if.end, %if.then
  %3 = load i32, ptr %retval, align 4
  ret i32 %3
}

; Function Attrs: mustprogress uwtable
define linkonce_odr hidden void @_ZN6vectorIbLb0EjE9copy_coreERKS0_(ptr noundef nonnull align 8 dereferenceable(8) %this, ptr noundef nonnull align 8 dereferenceable(8) %source) #5 comdat align 2 {
entry:
  %this.addr = alloca ptr, align 8
  %source.addr = alloca ptr, align 8
  %size = alloca i32, align 4
  %capacity = alloca i32, align 4
  %mem = alloca ptr, align 8
  store ptr %this, ptr %this.addr, align 8
  store ptr %source, ptr %source.addr, align 8
  %this1 = load ptr, ptr %this.addr, align 8
  %0 = load ptr, ptr %source.addr, align 8
  %call = call noundef i32 @_ZNK6vectorIbLb0EjE4sizeEv(ptr noundef nonnull align 8 dereferenceable(8) %0)
  store i32 %call, ptr %size, align 4
  %1 = load ptr, ptr %source.addr, align 8
  %call2 = call noundef i32 @_ZNK6vectorIbLb0EjE8capacityEv(ptr noundef nonnull align 8 dereferenceable(8) %1)
  store i32 %call2, ptr %capacity, align 4
  %2 = load i32, ptr %capacity, align 4
  %conv = zext i32 %2 to i64
  %mul = mul i64 1, %conv
  %add = add i64 %mul, 8
  %call3 = call noalias noundef ptr @_ZN6memory8allocateEm(i64 noundef %add)
  store ptr %call3, ptr %mem, align 8
  %3 = load i32, ptr %capacity, align 4
  %4 = load ptr, ptr %mem, align 8
  store i32 %3, ptr %4, align 4
  %5 = load ptr, ptr %mem, align 8
  %incdec.ptr = getelementptr inbounds i32, ptr %5, i32 1
  store ptr %incdec.ptr, ptr %mem, align 8
  %6 = load i32, ptr %size, align 4
  %7 = load ptr, ptr %mem, align 8
  store i32 %6, ptr %7, align 4
  %8 = load ptr, ptr %mem, align 8
  %incdec.ptr4 = getelementptr inbounds i32, ptr %8, i32 1
  store ptr %incdec.ptr4, ptr %mem, align 8
  %9 = load ptr, ptr %mem, align 8
  %m_data = getelementptr inbounds %class.vector.1, ptr %this1, i32 0, i32 0
  store ptr %9, ptr %m_data, align 8
  %10 = load ptr, ptr %source.addr, align 8
  %call5 = call noundef ptr @_ZNK6vectorIbLb0EjE5beginEv(ptr noundef nonnull align 8 dereferenceable(8) %10)
  %11 = load ptr, ptr %source.addr, align 8
  %call6 = call noundef ptr @_ZNK6vectorIbLb0EjE3endEv(ptr noundef nonnull align 8 dereferenceable(8) %11)
  %call7 = call noundef ptr @_ZN6vectorIbLb0EjE5beginEv(ptr noundef nonnull align 8 dereferenceable(8) %this1)
  %call8 = call noundef ptr @_ZSt18uninitialized_copyIPKbPbET0_T_S4_S3_(ptr noundef %call5, ptr noundef %call6, ptr noundef %call7)
  ret void
}

; Function Attrs: mustprogress uwtable
define linkonce_odr hidden void @_ZN6vectorIbLb0EjEC2ERKS0_(ptr noundef nonnull align 8 dereferenceable(8) %this, ptr noundef nonnull align 8 dereferenceable(8) %source) unnamed_addr #5 comdat align 2 {
entry:
  %this.addr = alloca ptr, align 8
  %source.addr = alloca ptr, align 8
  store ptr %this, ptr %this.addr, align 8
  store ptr %source, ptr %source.addr, align 8
  %this1 = load ptr, ptr %this.addr, align 8
  %m_data = getelementptr inbounds %class.vector.1, ptr %this1, i32 0, i32 0
  store ptr null, ptr %m_data, align 8
  %0 = load ptr, ptr %source.addr, align 8
  %m_data2 = getelementptr inbounds %class.vector.1, ptr %0, i32 0, i32 0
  %1 = load ptr, ptr %m_data2, align 8
  %tobool = icmp ne ptr %1, null
  br i1 %tobool, label %if.then, label %if.end

if.then:                                          ; preds = %entry
  %2 = load ptr, ptr %source.addr, align 8
  call void @_ZN6vectorIbLb0EjE9copy_coreERKS0_(ptr noundef nonnull align 8 dereferenceable(8) %this1, ptr noundef nonnull align 8 dereferenceable(8) %2)
  br label %if.end

if.end:                                           ; preds = %if.then, %entry
  ret void
}

; Function Attrs: mustprogress nounwind uwtable
define linkonce_odr hidden noundef i32 @_ZNK6vectorIbLb0EjE4sizeEv(ptr noundef nonnull align 8 dereferenceable(8) %this) #4 comdat align 2 {
entry:
  %retval = alloca i32, align 4
  %this.addr = alloca ptr, align 8
  store ptr %this, ptr %this.addr, align 8
  %this1 = load ptr, ptr %this.addr, align 8
  %m_data = getelementptr inbounds %class.vector.1, ptr %this1, i32 0, i32 0
  %0 = load ptr, ptr %m_data, align 8
  %cmp = icmp eq ptr %0, null
  br i1 %cmp, label %if.then, label %if.end

if.then:                                          ; preds = %entry
  store i32 0, ptr %retval, align 4
  br label %return

if.end:                                           ; preds = %entry
  %m_data2 = getelementptr inbounds %class.vector.1, ptr %this1, i32 0, i32 0
  %1 = load ptr, ptr %m_data2, align 8
  %arrayidx = getelementptr inbounds i32, ptr %1, i64 -1
  %2 = load i32, ptr %arrayidx, align 4
  store i32 %2, ptr %retval, align 4
  br label %return

return:                                           ; preds = %if.end, %if.then
  %3 = load i32, ptr %retval, align 4
  ret i32 %3
}

; Function Attrs: mustprogress uwtable
define linkonce_odr hidden void @_ZN7svectorIbjEC2ERKS0_(ptr noundef nonnull align 8 dereferenceable(8) %this, ptr noundef nonnull align 8 dereferenceable(8) %0) unnamed_addr #5 comdat align 2 {
entry:
  %this.addr = alloca ptr, align 8
  %.addr = alloca ptr, align 8
  store ptr %this, ptr %this.addr, align 8
  store ptr %0, ptr %.addr, align 8
  %this1 = load ptr, ptr %this.addr, align 8
  %1 = load ptr, ptr %.addr, align 8
  call void @_ZN6vectorIbLb0EjEC2ERKS0_(ptr noundef nonnull align 8 dereferenceable(8) %this1, ptr noundef nonnull align 8 dereferenceable(8) %1)
  ret void
}

; Function Attrs: mustprogress nounwind uwtable
define linkonce_odr hidden noundef ptr @_ZN6vectorIbLb0EjE3endEv(ptr noundef nonnull align 8 dereferenceable(8) %this) #4 comdat align 2 {
entry:
  %this.addr = alloca ptr, align 8
  store ptr %this, ptr %this.addr, align 8
  %this1 = load ptr, ptr %this.addr, align 8
  %m_data = getelementptr inbounds %class.vector.1, ptr %this1, i32 0, i32 0
  %0 = load ptr, ptr %m_data, align 8
  %call = call noundef i32 @_ZNK6vectorIbLb0EjE4sizeEv(ptr noundef nonnull align 8 dereferenceable(8) %this1)
  %idx.ext = zext i32 %call to i64
  %add.ptr = getelementptr inbounds i8, ptr %0, i64 %idx.ext
  ret ptr %add.ptr
}

; Function Attrs: mustprogress nounwind uwtable
define linkonce_odr hidden noundef ptr @_ZN6vectorIbLb0EjE5beginEv(ptr noundef nonnull align 8 dereferenceable(8) %this) #4 comdat align 2 {
entry:
  %this.addr = alloca ptr, align 8
  store ptr %this, ptr %this.addr, align 8
  %this1 = load ptr, ptr %this.addr, align 8
  %m_data = getelementptr inbounds %class.vector.1, ptr %this1, i32 0, i32 0
  %0 = load ptr, ptr %m_data, align 8
  ret ptr %0
}

; Function Attrs: mustprogress uwtable
define linkonce_odr hidden void @_ZN3nla18const_iterator_monC2ERKS0_(ptr noundef nonnull align 8 dereferenceable(24) %this, ptr noundef nonnull align 8 dereferenceable(24) %0) unnamed_addr #5 comdat align 2 {
entry:
  %this.addr = alloca ptr, align 8
  %.addr = alloca ptr, align 8
  store ptr %this, ptr %this.addr, align 8
  store ptr %0, ptr %.addr, align 8
  %this1 = load ptr, ptr %this.addr, align 8
  %m_mask = getelementptr inbounds %"struct.nla::const_iterator_mon", ptr %this1, i32 0, i32 0
  %1 = load ptr, ptr %.addr, align 8
  %m_mask2 = getelementptr inbounds %"struct.nla::const_iterator_mon", ptr %1, i32 0, i32 0
  call void @_ZN7svectorIbjEC2ERKS0_(ptr noundef nonnull align 8 dereferenceable(8) %m_mask, ptr noundef nonnull align 8 dereferenceable(8) %m_mask2)
  %m_ff = getelementptr inbounds %"struct.nla::const_iterator_mon", ptr %this1, i32 0, i32 1
  %2 = load ptr, ptr %.addr, align 8
  %m_ff3 = getelementptr inbounds %"struct.nla::const_iterator_mon", ptr %2, i32 0, i32 1
  call void @llvm.memcpy.p0.p0.i64(ptr align 8 %m_ff, ptr align 8 %m_ff3, i64 16, i1 false)
  ret void
}

; Function Attrs: mustprogress uwtable
define hidden void @_ZN3nla18const_iterator_mon12advance_maskEv(ptr noundef nonnull align 8 dereferenceable(24) %this) #5 align 2 {
entry:
  %this.addr = alloca ptr, align 8
  %__range1 = alloca ptr, align 8
  %__begin1 = alloca ptr, align 8
  %__end1 = alloca ptr, align 8
  %m = alloca ptr, align 8
  store ptr %this, ptr %this.addr, align 8
  %this1 = load ptr, ptr %this.addr, align 8
  %m_full_factorization_returned = getelementptr inbounds %"struct.nla::const_iterator_mon", ptr %this1, i32 0, i32 2
  %0 = load i8, ptr %m_full_factorization_returned, align 8
  %tobool = trunc i8 %0 to i1
  br i1 %tobool, label %if.end, label %if.then

if.then:                                          ; preds = %entry
  %m_full_factorization_returned2 = getelementptr inbounds %"struct.nla::const_iterator_mon", ptr %this1, i32 0, i32 2
  store i8 1, ptr %m_full_factorization_returned2, align 8
  br label %for.end

if.end:                                           ; preds = %entry
  %m_mask = getelementptr inbounds %"struct.nla::const_iterator_mon", ptr %this1, i32 0, i32 0
  store ptr %m_mask, ptr %__range1, align 8
  %1 = load ptr, ptr %__range1, align 8
  %call = call noundef ptr @_ZN6vectorIbLb0EjE5beginEv(ptr noundef nonnull align 8 dereferenceable(8) %1)
  store ptr %call, ptr %__begin1, align 8
  %2 = load ptr, ptr %__range1, align 8
  %call3 = call noundef ptr @_ZN6vectorIbLb0EjE3endEv(ptr noundef nonnull align 8 dereferenceable(8) %2)
  store ptr %call3, ptr %__end1, align 8
  br label %for.cond

for.cond:                                         ; preds = %for.inc, %if.end
  %3 = load ptr, ptr %__begin1, align 8
  %4 = load ptr, ptr %__end1, align 8
  %cmp = icmp ne ptr %3, %4
  br i1 %cmp, label %for.body, label %for.end

for.body:                                         ; preds = %for.cond
  %5 = load ptr, ptr %__begin1, align 8
  store ptr %5, ptr %m, align 8
  %6 = load ptr, ptr %m, align 8
  %7 = load i8, ptr %6, align 1
  %tobool4 = trunc i8 %7 to i1
  br i1 %tobool4, label %if.then5, label %if.else

if.then5:                                         ; preds = %for.body
  %8 = load ptr, ptr %m, align 8
  store i8 0, ptr %8, align 1
  br label %if.end6

if.else:                                          ; preds = %for.body
  %9 = load ptr, ptr %m, align 8
  store i8 1, ptr %9, align 1
  br label %for.end

if.end6:                                          ; preds = %if.then5
  br label %for.inc

for.inc:                                          ; preds = %if.end6
  %10 = load ptr, ptr %__begin1, align 8
  %incdec.ptr = getelementptr inbounds i8, ptr %10, i32 1
  store ptr %incdec.ptr, ptr %__begin1, align 8
  br label %for.cond

for.end:                                          ; preds = %if.else, %for.cond, %if.then
  ret void
}

; Function Attrs: mustprogress uwtable
define hidden void @_ZN3nla18const_iterator_monppEi(ptr noalias sret(%"struct.nla::const_iterator_mon") align 8 %agg.result, ptr noundef nonnull align 8 dereferenceable(24) %this, i32 noundef %0) #5 align 2 {
entry:
  %result.ptr = alloca ptr, align 8
  %this.addr = alloca ptr, align 8
  %.addr = alloca i32, align 4
  store ptr %agg.result, ptr %result.ptr, align 8
  store ptr %this, ptr %this.addr, align 8
  store i32 %0, ptr %.addr, align 4
  %this1 = load ptr, ptr %this.addr, align 8
  call void @_ZN3nla18const_iterator_mon12advance_maskEv(ptr noundef nonnull align 8 dereferenceable(24) %this1)
  call void @_ZN3nla18const_iterator_monC2ERKS0_(ptr noundef nonnull align 8 dereferenceable(24) %agg.result, ptr noundef nonnull align 8 dereferenceable(24) %this1)
  ret void
}