; Function Attrs: mustprogress uwtable
define hidden void @_ZN3nla18const_iterator_monppEi(ptr noalias nocapture writeonly sret(%"struct.nla::const_iterator_mon") align 8 %agg.result, ptr nocapture noundef nonnull align 8 dereferenceable(24) %this, i32 noundef %0) local_unnamed_addr #3 align 2 {
entry:
  %m_full_factorization_returned.i = getelementptr inbounds i8, ptr %this, i64 16
  %1 = load i8, ptr %m_full_factorization_returned.i, align 8
  %2 = and i8 %1, 1
  %tobool.not.i = icmp eq i8 %2, 0
  br i1 %tobool.not.i, label %if.then.i, label %if.end.i

if.then.i:                                        ; preds = %entry
  store i8 1, ptr %m_full_factorization_returned.i, align 8
  br label %_ZN3nla18const_iterator_mon12advance_maskEv.exit

if.end.i:                                         ; preds = %entry
  %3 = load ptr, ptr %this, align 8
  %cmp.i.i.i = icmp eq ptr %3, null
  br i1 %cmp.i.i.i, label %_ZN3nla18const_iterator_mon12advance_maskEv.exit.thread, label %_ZN6vectorIbLb0EjE3endEv.exit.i

_ZN3nla18const_iterator_mon12advance_maskEv.exit.thread: ; preds = %if.end.i
  store ptr null, ptr %agg.result, align 8
  br label %_ZN3nla18const_iterator_monC2ERKS0_.exit

_ZN6vectorIbLb0EjE3endEv.exit.i:                  ; preds = %if.end.i
  %arrayidx.i.i.i = getelementptr inbounds i8, ptr %3, i64 -4
  %4 = load i32, ptr %arrayidx.i.i.i, align 4
  %5 = zext i32 %4 to i64
  %add.ptr.i.i = getelementptr inbounds i8, ptr %3, i64 %5
  %cmp.not7.i = icmp eq i32 %4, 0
  br i1 %cmp.not7.i, label %_ZN3nla18const_iterator_mon12advance_maskEv.exit, label %for.body.i

for.body.i:                                       ; preds = %_ZN6vectorIbLb0EjE3endEv.exit.i, %if.then5.i
  %__begin1.08.i = phi ptr [ %incdec.ptr.i, %if.then5.i ], [ %3, %_ZN6vectorIbLb0EjE3endEv.exit.i ]
  %6 = load i8, ptr %__begin1.08.i, align 1
  %7 = and i8 %6, 1
  %tobool4.not.i = icmp eq i8 %7, 0
  br i1 %tobool4.not.i, label %if.else.i, label %if.then5.i

if.then5.i:                                       ; preds = %for.body.i
  store i8 0, ptr %__begin1.08.i, align 1
  %incdec.ptr.i = getelementptr inbounds i8, ptr %__begin1.08.i, i64 1
  %cmp.not.i = icmp eq ptr %incdec.ptr.i, %add.ptr.i.i
  br i1 %cmp.not.i, label %_ZN3nla18const_iterator_mon12advance_maskEv.exit, label %for.body.i

if.else.i:                                        ; preds = %for.body.i
  store i8 1, ptr %__begin1.08.i, align 1
  br label %_ZN3nla18const_iterator_mon12advance_maskEv.exit

_ZN3nla18const_iterator_mon12advance_maskEv.exit: ; preds = %if.then5.i, %if.then.i, %_ZN6vectorIbLb0EjE3endEv.exit.i, %if.else.i
  %.pr = load ptr, ptr %this, align 8
  store ptr null, ptr %agg.result, align 8
  %tobool.not.i.i.i = icmp eq ptr %.pr, null
  br i1 %tobool.not.i.i.i, label %_ZN3nla18const_iterator_monC2ERKS0_.exit, label %_ZNK6vectorIbLb0EjE8capacityEv.exit.i.i.i.i

_ZNK6vectorIbLb0EjE8capacityEv.exit.i.i.i.i:      ; preds = %_ZN3nla18const_iterator_mon12advance_maskEv.exit
  %arrayidx.i11.i.i.i.i = getelementptr inbounds i8, ptr %.pr, i64 -8
  %8 = load <2 x i32>, ptr %arrayidx.i11.i.i.i.i, align 4
  %9 = extractelement <2 x i32> %8, i64 0
  %conv.i.i.i.i = zext i32 %9 to i64
  %add.i.i.i.i = add nuw nsw i64 %conv.i.i.i.i, 8
  %call3.i.i.i.i = tail call noalias noundef ptr @_ZN6memory8allocateEm(i64 noundef %add.i.i.i.i)
  store <2 x i32> %8, ptr %call3.i.i.i.i, align 4
  %incdec.ptr4.i.i.i.i = getelementptr inbounds i8, ptr %call3.i.i.i.i, i64 8
  store ptr %incdec.ptr4.i.i.i.i, ptr %agg.result, align 8
  %10 = load ptr, ptr %this, align 8
  %cmp.i.i.i.i.i.i = icmp eq ptr %10, null
  br i1 %cmp.i.i.i.i.i.i, label %_ZN3nla18const_iterator_monC2ERKS0_.exit, label %_ZNK6vectorIbLb0EjE3endEv.exit.i.i.i.i

_ZNK6vectorIbLb0EjE3endEv.exit.i.i.i.i:           ; preds = %_ZNK6vectorIbLb0EjE8capacityEv.exit.i.i.i.i
  %arrayidx.i.i.i.i.i.i = getelementptr inbounds i8, ptr %10, i64 -4
  %11 = load i32, ptr %arrayidx.i.i.i.i.i.i, align 4
  %tobool.not.i.i.i.i.i.i.i.i.i.i.i = icmp eq i32 %11, 0
  br i1 %tobool.not.i.i.i.i.i.i.i.i.i.i.i, label %_ZN3nla18const_iterator_monC2ERKS0_.exit, label %if.then.i.i.i.i.i.i.i.i.i.i.i

if.then.i.i.i.i.i.i.i.i.i.i.i:                    ; preds = %_ZNK6vectorIbLb0EjE3endEv.exit.i.i.i.i
  %12 = zext i32 %11 to i64
  tail call void @llvm.memmove.p0.p0.i64(ptr nonnull align 1 %incdec.ptr4.i.i.i.i, ptr nonnull align 1 %10, i64 %12, i1 false)
  br label %_ZN3nla18const_iterator_monC2ERKS0_.exit

_ZN3nla18const_iterator_monC2ERKS0_.exit:         ; preds = %_ZN3nla18const_iterator_mon12advance_maskEv.exit.thread, %_ZN3nla18const_iterator_mon12advance_maskEv.exit, %_ZNK6vectorIbLb0EjE8capacityEv.exit.i.i.i.i, %_ZNK6vectorIbLb0EjE3endEv.exit.i.i.i.i, %if.then.i.i.i.i.i.i.i.i.i.i.i
  %m_ff.i = getelementptr inbounds i8, ptr %agg.result, i64 8
  %m_ff3.i = getelementptr inbounds i8, ptr %this, i64 8
  tail call void @llvm.memcpy.p0.p0.i64(ptr noundef nonnull align 8 dereferenceable(16) %m_ff.i, ptr noundef nonnull align 8 dereferenceable(16) %m_ff3.i, i64 16, i1 false)
  ret void
}